; Function Attrs: mustprogress nounwind uwtable
define void @_ZN32pxrInternal_v0_24__pxrReserved__15SdfAbstractDataD2Ev(ptr noundef nonnull align 8 dereferenceable(24) %0) unnamed_addr #0 align 2 personality ptr @__gxx_personality_v0 {
  %2 = getelementptr inbounds i8, ptr %0, i64 16
  %3 = load atomic i64, ptr %2 monotonic, align 8
  %.0.i.i = inttoptr i64 %3 to ptr
  %.not.i = icmp eq i64 %3, 0
  br i1 %.not.i, label %_ZN32pxrInternal_v0_24__pxrReserved__10TfWeakBaseD2Ev.exit, label %4

4:                                                ; preds = %1
  %5 = getelementptr inbounds nuw i8, ptr %.0.i.i, i64 14
  store i8 0, ptr %5, align 2
  %6 = getelementptr inbounds nuw i8, ptr %.0.i.i, i64 13
  %7 = load i8, ptr %6, align 1
  %8 = trunc i8 %7 to i1
  br i1 %8, label %9, label %_ZN32pxrInternal_v0_24__pxrReserved__17Tf_RefPtr_Counter9RemoveRefEPKNS_9TfRefBaseE.exit.i.i.i

9:                                                ; preds = %4
  invoke void @_ZN32pxrInternal_v0_24__pxrReserved__17Tf_ExpiryNotifier7Invoke2EPKv(ptr noundef nonnull %.0.i.i)
          to label %_ZN32pxrInternal_v0_24__pxrReserved__17Tf_RefPtr_Counter9RemoveRefEPKNS_9TfRefBaseE.exit.i.i.i unwind label %17

_ZN32pxrInternal_v0_24__pxrReserved__17Tf_RefPtr_Counter9RemoveRefEPKNS_9TfRefBaseE.exit.i.i.i: ; preds = %9, %4
  %10 = getelementptr inbounds nuw i8, ptr %.0.i.i, i64 8
  %11 = atomicrmw sub ptr %10, i32 1 release, align 4
  %12 = icmp eq i32 %11, 1
  br i1 %12, label %13, label %_ZN32pxrInternal_v0_24__pxrReserved__10TfWeakBaseD2Ev.exit

13:                                               ; preds = %_ZN32pxrInternal_v0_24__pxrReserved__17Tf_RefPtr_Counter9RemoveRefEPKNS_9TfRefBaseE.exit.i.i.i
  %14 = load ptr, ptr %.0.i.i, align 8
  %15 = getelementptr inbounds i8, ptr %14, i64 8
  %16 = load ptr, ptr %15, align 8
  tail call void %16(ptr noundef nonnull align 8 dereferenceable(12) %.0.i.i) #20
  br label %_ZN32pxrInternal_v0_24__pxrReserved__10TfWeakBaseD2Ev.exit

17:                                               ; preds = %9
  %18 = landingpad { ptr, i32 }
          catch ptr null
  %19 = extractvalue { ptr, i32 } %18, 0
  tail call void @__clang_call_terminate(ptr %19) #21
  unreachable

_ZN32pxrInternal_v0_24__pxrReserved__10TfWeakBaseD2Ev.exit: ; preds = %1, %_ZN32pxrInternal_v0_24__pxrReserved__17Tf_RefPtr_Counter9RemoveRefEPKNS_9TfRefBaseE.exit.i.i.i, %13
  tail call void @_ZN32pxrInternal_v0_24__pxrReserved__9TfRefBaseD2Ev(ptr noundef nonnull align 8 dereferenceable(12) %0) #20
  ret void
}